target datalayout = "e-m:e-p270:32:32-p271:32:32-p272:64:64-i64:64-i128:128-f80:128-n8:16:32:64-S128"
target triple = "x86_64-unknown-linux-gnu"

%struct.BlockSplit = type { i64, i64, ptr, ptr, i64, i64 }
%struct.HistogramCommand = type { [704 x i32], i64, double }
%struct.BlockSplitterCommand = type { i64, i64, double, i64, ptr, ptr, ptr, [2 x %struct.HistogramCommand], i64, i64, i64, [2 x i64], [2 x double], i64 }

; Function Attrs: nounwind uwtable
define internal void @InitBlockSplitterCommand(ptr noundef %m, ptr noundef %self, i64 noundef %alphabet_size, i64 noundef %min_block_size, double noundef %split_threshold, i64 noundef %num_symbols, ptr noundef %split, ptr noundef %histograms, ptr noundef %histograms_size) #0 {
entry:
  %a.addr.i = alloca i64, align 8
  %b.addr.i = alloca i64, align 8
  %self.addr.i = alloca ptr, align 8
  %m.addr = alloca ptr, align 8
  %self.addr = alloca ptr, align 8
  %alphabet_size.addr = alloca i64, align 8
  %min_block_size.addr = alloca i64, align 8
  %split_threshold.addr = alloca double, align 8
  %num_symbols.addr = alloca i64, align 8
  %split.addr = alloca ptr, align 8
  %histograms.addr = alloca ptr, align 8
  %histograms_size.addr = alloca ptr, align 8
  %max_num_blocks = alloca i64, align 8
  %max_num_types = alloca i64, align 8
  %_new_size = alloca i64, align 8
  %new_array = alloca ptr, align 8
  %_new_size24 = alloca i64, align 8
  %new_array32 = alloca ptr, align 8
  store ptr %m, ptr %m.addr, align 8
  store ptr %self, ptr %self.addr, align 8
  store i64 %alphabet_size, ptr %alphabet_size.addr, align 8
  store i64 %min_block_size, ptr %min_block_size.addr, align 8
  store double %split_threshold, ptr %split_threshold.addr, align 8
  store i64 %num_symbols, ptr %num_symbols.addr, align 8
  store ptr %split, ptr %split.addr, align 8
  store ptr %histograms, ptr %histograms.addr, align 8
  store ptr %histograms_size, ptr %histograms_size.addr, align 8
  %0 = load i64, ptr %num_symbols.addr, align 8
  %1 = load i64, ptr %min_block_size.addr, align 8
  %div = udiv i64 %0, %1
  %add = add i64 %div, 1
  store i64 %add, ptr %max_num_blocks, align 8
  %2 = load i64, ptr %max_num_blocks, align 8
  store i64 %2, ptr %a.addr.i, align 8
  store i64 257, ptr %b.addr.i, align 8
  %3 = load i64, ptr %a.addr.i, align 8
  %4 = load i64, ptr %b.addr.i, align 8
  %cmp.i = icmp ult i64 %3, %4
  br i1 %cmp.i, label %cond.true.i, label %cond.false.i

cond.true.i:                                      ; preds = %entry
  %5 = load i64, ptr %a.addr.i, align 8
  br label %brotli_min_size_t.exit

cond.false.i:                                     ; preds = %entry
  %6 = load i64, ptr %b.addr.i, align 8
  br label %brotli_min_size_t.exit

brotli_min_size_t.exit:                           ; preds = %cond.false.i, %cond.true.i
  %cond.i = phi i64 [ %5, %cond.true.i ], [ %6, %cond.false.i ]
  store i64 %cond.i, ptr %max_num_types, align 8
  %7 = load i64, ptr %alphabet_size.addr, align 8
  %8 = load ptr, ptr %self.addr, align 8
  %alphabet_size_ = getelementptr inbounds %struct.BlockSplitterCommand, ptr %8, i32 0, i32 0
  store i64 %7, ptr %alphabet_size_, align 8
  %9 = load i64, ptr %min_block_size.addr, align 8
  %10 = load ptr, ptr %self.addr, align 8
  %min_block_size_ = getelementptr inbounds %struct.BlockSplitterCommand, ptr %10, i32 0, i32 1
  store i64 %9, ptr %min_block_size_, align 8
  %11 = load double, ptr %split_threshold.addr, align 8
  %12 = load ptr, ptr %self.addr, align 8
  %split_threshold_ = getelementptr inbounds %struct.BlockSplitterCommand, ptr %12, i32 0, i32 2
  store double %11, ptr %split_threshold_, align 8
  %13 = load ptr, ptr %self.addr, align 8
  %num_blocks_ = getelementptr inbounds %struct.BlockSplitterCommand, ptr %13, i32 0, i32 3
  store i64 0, ptr %num_blocks_, align 8
  %14 = load ptr, ptr %split.addr, align 8
  %15 = load ptr, ptr %self.addr, align 8
  %split_ = getelementptr inbounds %struct.BlockSplitterCommand, ptr %15, i32 0, i32 4
  store ptr %14, ptr %split_, align 8
  %16 = load ptr, ptr %histograms_size.addr, align 8
  %17 = load ptr, ptr %self.addr, align 8
  %histograms_size_ = getelementptr inbounds %struct.BlockSplitterCommand, ptr %17, i32 0, i32 6
  store ptr %16, ptr %histograms_size_, align 8
  %18 = load i64, ptr %min_block_size.addr, align 8
  %19 = load ptr, ptr %self.addr, align 8
  %target_block_size_ = getelementptr inbounds %struct.BlockSplitterCommand, ptr %19, i32 0, i32 8
  store i64 %18, ptr %target_block_size_, align 8
  %20 = load ptr, ptr %self.addr, align 8
  %block_size_ = getelementptr inbounds %struct.BlockSplitterCommand, ptr %20, i32 0, i32 9
  store i64 0, ptr %block_size_, align 8
  %21 = load ptr, ptr %self.addr, align 8
  %curr_histogram_ix_ = getelementptr inbounds %struct.BlockSplitterCommand, ptr %21, i32 0, i32 10
  store i64 0, ptr %curr_histogram_ix_, align 8
  %22 = load ptr, ptr %self.addr, align 8
  %merge_last_count_ = getelementptr inbounds %struct.BlockSplitterCommand, ptr %22, i32 0, i32 13
  store i64 0, ptr %merge_last_count_, align 8
  %23 = load ptr, ptr %split.addr, align 8
  %types_alloc_size = getelementptr inbounds %struct.BlockSplit, ptr %23, i32 0, i32 4
  %24 = load i64, ptr %types_alloc_size, align 8
  %25 = load i64, ptr %max_num_blocks, align 8
  %cmp = icmp ult i64 %24, %25
  br i1 %cmp, label %if.then, label %if.end21

if.then:                                          ; preds = %brotli_min_size_t.exit
  %26 = load ptr, ptr %split.addr, align 8
  %types_alloc_size1 = getelementptr inbounds %struct.BlockSplit, ptr %26, i32 0, i32 4
  %27 = load i64, ptr %types_alloc_size1, align 8
  %cmp2 = icmp eq i64 %27, 0
  br i1 %cmp2, label %cond.true, label %cond.false

cond.true:                                        ; preds = %if.then
  %28 = load i64, ptr %max_num_blocks, align 8
  br label %cond.end

cond.false:                                       ; preds = %if.then
  %29 = load ptr, ptr %split.addr, align 8
  %types_alloc_size3 = getelementptr inbounds %struct.BlockSplit, ptr %29, i32 0, i32 4
  %30 = load i64, ptr %types_alloc_size3, align 8
  br label %cond.end

cond.end:                                         ; preds = %cond.false, %cond.true
  %cond = phi i64 [ %28, %cond.true ], [ %30, %cond.false ]
  store i64 %cond, ptr %_new_size, align 8
  br label %while.cond

while.cond:                                       ; preds = %while.body, %cond.end
  %31 = load i64, ptr %_new_size, align 8
  %32 = load i64, ptr %max_num_blocks, align 8
  %cmp4 = icmp ult i64 %31, %32
  br i1 %cmp4, label %while.body, label %while.end

while.body:                                       ; preds = %while.cond
  %33 = load i64, ptr %_new_size, align 8
  %mul = mul i64 %33, 2
  store i64 %mul, ptr %_new_size, align 8
  br label %while.cond, !llvm.loop !26

while.end:                                        ; preds = %while.cond
  %34 = load i64, ptr %_new_size, align 8
  %cmp5 = icmp ugt i64 %34, 0
  br i1 %cmp5, label %cond.true6, label %cond.false9

cond.true6:                                       ; preds = %while.end
  %35 = load ptr, ptr %m.addr, align 8
  %36 = load i64, ptr %_new_size, align 8
  %mul7 = mul i64 %36, 1
  %call8 = call ptr @BrotliAllocate(ptr noundef %35, i64 noundef %mul7)
  br label %cond.end10

cond.false9:                                      ; preds = %while.end
  br label %cond.end10

cond.end10:                                       ; preds = %cond.false9, %cond.true6
  %cond11 = phi ptr [ %call8, %cond.true6 ], [ null, %cond.false9 ]
  store ptr %cond11, ptr %new_array, align 8
  %37 = load ptr, ptr %split.addr, align 8
  %types_alloc_size12 = getelementptr inbounds %struct.BlockSplit, ptr %37, i32 0, i32 4
  %38 = load i64, ptr %types_alloc_size12, align 8
  %cmp13 = icmp ne i64 %38, 0
  br i1 %cmp13, label %if.then14, label %if.end

if.then14:                                        ; preds = %cond.end10
  %39 = load ptr, ptr %new_array, align 8
  %40 = load ptr, ptr %split.addr, align 8
  %types = getelementptr inbounds %struct.BlockSplit, ptr %40, i32 0, i32 2
  %41 = load ptr, ptr %types, align 8
  %42 = load ptr, ptr %split.addr, align 8
  %types_alloc_size15 = getelementptr inbounds %struct.BlockSplit, ptr %42, i32 0, i32 4
  %43 = load i64, ptr %types_alloc_size15, align 8
  %mul16 = mul i64 %43, 1
  call void @llvm.memcpy.p0.p0.i64(ptr align 1 %39, ptr align 1 %41, i64 %mul16, i1 false)
  br label %if.end

if.end:                                           ; preds = %if.then14, %cond.end10
  %44 = load ptr, ptr %m.addr, align 8
  %45 = load ptr, ptr %split.addr, align 8
  %types17 = getelementptr inbounds %struct.BlockSplit, ptr %45, i32 0, i32 2
  %46 = load ptr, ptr %types17, align 8
  call void @BrotliFree(ptr noundef %44, ptr noundef %46)
  %47 = load ptr, ptr %split.addr, align 8
  %types18 = getelementptr inbounds %struct.BlockSplit, ptr %47, i32 0, i32 2
  store ptr null, ptr %types18, align 8
  %48 = load ptr, ptr %new_array, align 8
  %49 = load ptr, ptr %split.addr, align 8
  %types19 = getelementptr inbounds %struct.BlockSplit, ptr %49, i32 0, i32 2
  store ptr %48, ptr %types19, align 8
  %50 = load i64, ptr %_new_size, align 8
  %51 = load ptr, ptr %split.addr, align 8
  %types_alloc_size20 = getelementptr inbounds %struct.BlockSplit, ptr %51, i32 0, i32 4
  store i64 %50, ptr %types_alloc_size20, align 8
  br label %if.end21

if.end21:                                         ; preds = %if.end, %brotli_min_size_t.exit
  %52 = load ptr, ptr %split.addr, align 8
  %lengths_alloc_size = getelementptr inbounds %struct.BlockSplit, ptr %52, i32 0, i32 5
  %53 = load i64, ptr %lengths_alloc_size, align 8
  %54 = load i64, ptr %max_num_blocks, align 8
  %cmp22 = icmp ult i64 %53, %54
  br i1 %cmp22, label %if.then23, label %if.end55

if.then23:                                        ; preds = %if.end21
  %55 = load ptr, ptr %split.addr, align 8
  %lengths_alloc_size25 = getelementptr inbounds %struct.BlockSplit, ptr %55, i32 0, i32 5
  %56 = load i64, ptr %lengths_alloc_size25, align 8
  %cmp26 = icmp eq i64 %56, 0
  br i1 %cmp26, label %cond.true27, label %cond.false28

cond.true27:                                      ; preds = %if.then23
  %57 = load i64, ptr %max_num_blocks, align 8
  br label %cond.end30

cond.false28:                                     ; preds = %if.then23
  %58 = load ptr, ptr %split.addr, align 8
  %lengths_alloc_size29 = getelementptr inbounds %struct.BlockSplit, ptr %58, i32 0, i32 5
  %59 = load i64, ptr %lengths_alloc_size29, align 8
  br label %cond.end30

cond.end30:                                       ; preds = %cond.false28, %cond.true27
  %cond31 = phi i64 [ %57, %cond.true27 ], [ %59, %cond.false28 ]
  store i64 %cond31, ptr %_new_size24, align 8
  br label %while.cond33

while.cond33:                                     ; preds = %while.body35, %cond.end30
  %60 = load i64, ptr %_new_size24, align 8
  %61 = load i64, ptr %max_num_blocks, align 8
  %cmp34 = icmp ult i64 %60, %61
  br i1 %cmp34, label %while.body35, label %while.end37

while.body35:                                     ; preds = %while.cond33
  %62 = load i64, ptr %_new_size24, align 8
  %mul36 = mul i64 %62, 2
  store i64 %mul36, ptr %_new_size24, align 8
  br label %while.cond33, !llvm.loop !27

while.end37:                                      ; preds = %while.cond33
  %63 = load i64, ptr %_new_size24, align 8
  %cmp38 = icmp ugt i64 %63, 0
  br i1 %cmp38, label %cond.true39, label %cond.false42

cond.true39:                                      ; preds = %while.end37
  %64 = load ptr, ptr %m.addr, align 8
  %65 = load i64, ptr %_new_size24, align 8
  %mul40 = mul i64 %65, 4
  %call41 = call ptr @BrotliAllocate(ptr noundef %64, i64 noundef %mul40)
  br label %cond.end43

cond.false42:                                     ; preds = %while.end37
  br label %cond.end43

cond.end43:                                       ; preds = %cond.false42, %cond.true39
  %cond44 = phi ptr [ %call41, %cond.true39 ], [ null, %cond.false42 ]
  store ptr %cond44, ptr %new_array32, align 8
  %66 = load ptr, ptr %split.addr, align 8
  %lengths_alloc_size45 = getelementptr inbounds %struct.BlockSplit, ptr %66, i32 0, i32 5
  %67 = load i64, ptr %lengths_alloc_size45, align 8
  %cmp46 = icmp ne i64 %67, 0
  br i1 %cmp46, label %if.then47, label %if.end50

if.then47:                                        ; preds = %cond.end43
  %68 = load ptr, ptr %new_array32, align 8
  %69 = load ptr, ptr %split.addr, align 8
  %lengths = getelementptr inbounds %struct.BlockSplit, ptr %69, i32 0, i32 3
  %70 = load ptr, ptr %lengths, align 8
  %71 = load ptr, ptr %split.addr, align 8
  %lengths_alloc_size48 = getelementptr inbounds %struct.BlockSplit, ptr %71, i32 0, i32 5
  %72 = load i64, ptr %lengths_alloc_size48, align 8
  %mul49 = mul i64 %72, 4
  call void @llvm.memcpy.p0.p0.i64(ptr align 4 %68, ptr align 4 %70, i64 %mul49, i1 false)
  br label %if.end50

if.end50:                                         ; preds = %if.then47, %cond.end43
  %73 = load ptr, ptr %m.addr, align 8
  %74 = load ptr, ptr %split.addr, align 8
  %lengths51 = getelementptr inbounds %struct.BlockSplit, ptr %74, i32 0, i32 3
  %75 = load ptr, ptr %lengths51, align 8
  call void @BrotliFree(ptr noundef %73, ptr noundef %75)
  %76 = load ptr, ptr %split.addr, align 8
  %lengths52 = getelementptr inbounds %struct.BlockSplit, ptr %76, i32 0, i32 3
  store ptr null, ptr %lengths52, align 8
  %77 = load ptr, ptr %new_array32, align 8
  %78 = load ptr, ptr %split.addr, align 8
  %lengths53 = getelementptr inbounds %struct.BlockSplit, ptr %78, i32 0, i32 3
  store ptr %77, ptr %lengths53, align 8
  %79 = load i64, ptr %_new_size24, align 8
  %80 = load ptr, ptr %split.addr, align 8
  %lengths_alloc_size54 = getelementptr inbounds %struct.BlockSplit, ptr %80, i32 0, i32 5
  store i64 %79, ptr %lengths_alloc_size54, align 8
  br label %if.end55

if.end55:                                         ; preds = %if.end50, %if.end21
  %81 = load i64, ptr %max_num_blocks, align 8
  %82 = load ptr, ptr %self.addr, align 8
  %split_56 = getelementptr inbounds %struct.BlockSplitterCommand, ptr %82, i32 0, i32 4
  %83 = load ptr, ptr %split_56, align 8
  %num_blocks = getelementptr inbounds %struct.BlockSplit, ptr %83, i32 0, i32 1
  store i64 %81, ptr %num_blocks, align 8
  %84 = load i64, ptr %max_num_types, align 8
  %85 = load ptr, ptr %histograms_size.addr, align 8
  store i64 %84, ptr %85, align 8
  %86 = load ptr, ptr %histograms_size.addr, align 8
  %87 = load i64, ptr %86, align 8
  %cmp57 = icmp ugt i64 %87, 0
  br i1 %cmp57, label %cond.true58, label %cond.false61

cond.true58:                                      ; preds = %if.end55
  %88 = load ptr, ptr %m.addr, align 8
  %89 = load ptr, ptr %histograms_size.addr, align 8
  %90 = load i64, ptr %89, align 8
  %mul59 = mul i64 %90, 2832
  %call60 = call ptr @BrotliAllocate(ptr noundef %88, i64 noundef %mul59)
  br label %cond.end62

cond.false61:                                     ; preds = %if.end55
  br label %cond.end62

cond.end62:                                       ; preds = %cond.false61, %cond.true58
  %cond63 = phi ptr [ %call60, %cond.true58 ], [ null, %cond.false61 ]
  %91 = load ptr, ptr %histograms.addr, align 8
  store ptr %cond63, ptr %91, align 8
  %92 = load ptr, ptr %histograms.addr, align 8
  %93 = load ptr, ptr %92, align 8
  %94 = load ptr, ptr %self.addr, align 8
  %histograms_ = getelementptr inbounds %struct.BlockSplitterCommand, ptr %94, i32 0, i32 5
  store ptr %93, ptr %histograms_, align 8
  %95 = load ptr, ptr %self.addr, align 8
  %histograms_64 = getelementptr inbounds %struct.BlockSplitterCommand, ptr %95, i32 0, i32 5
  %96 = load ptr, ptr %histograms_64, align 8
  %arrayidx = getelementptr inbounds %struct.HistogramCommand, ptr %96, i64 0
  store ptr %arrayidx, ptr %self.addr.i, align 8
  %97 = load ptr, ptr %self.addr.i, align 8
  call void @llvm.memset.p0.i64(ptr align 8 %97, i8 0, i64 2816, i1 false)
  %98 = load ptr, ptr %self.addr.i, align 8
  %total_count_.i = getelementptr inbounds %struct.HistogramCommand, ptr %98, i32 0, i32 1
  store i64 0, ptr %total_count_.i, align 8
  %99 = load ptr, ptr %self.addr.i, align 8
  %bit_cost_.i = getelementptr inbounds %struct.HistogramCommand, ptr %99, i32 0, i32 2
  store double 0x7FF0000000000000, ptr %bit_cost_.i, align 8
  %100 = load ptr, ptr %self.addr, align 8
  %last_histogram_ix_ = getelementptr inbounds %struct.BlockSplitterCommand, ptr %100, i32 0, i32 11
  %arrayidx65 = getelementptr inbounds [2 x i64], ptr %last_histogram_ix_, i64 0, i64 1
  store i64 0, ptr %arrayidx65, align 8
  %101 = load ptr, ptr %self.addr, align 8
  %last_histogram_ix_66 = getelementptr inbounds %struct.BlockSplitterCommand, ptr %101, i32 0, i32 11
  %arrayidx67 = getelementptr inbounds [2 x i64], ptr %last_histogram_ix_66, i64 0, i64 0
  store i64 0, ptr %arrayidx67, align 8
  ret void
}